target datalayout = "e-m:e-p270:32:32-p271:32:32-p272:64:64-i64:64-i128:128-f80:128-n8:16:32:64-S128"
target triple = "x86_64-pc-linux-gnu"

%struct.jit_State = type { %struct.GCtrace, ptr, ptr, ptr, ptr, ptr, ptr, i32, i32, i32, i8, i8, %struct.IRType1, i8, %struct.FoldState, ptr, i32, i32, i32, i32, i32, i32, i32, [1 x i32], [5 x %union.TValue], [3 x %union.TValue], ptr, i32, i32, i32, i32, ptr, ptr, i32, i32, i8, ptr, i32, i32, i16, [101 x i16], [258 x i32], [15 x i32], [16 x ptr], [64 x %struct.HotPenalty], i32, [16 x %struct.BPropEntry], i32, %struct.ScEvEntry, ptr, i32, i32, i32, ptr, i32, i32, ptr, ptr, ptr, i64, i64, %union.TValue, ptr, i32, i32 }
%struct.GCtrace = type { %struct.GCRef, i8, i8, i16, i32, i32, %struct.GCRef, ptr, i32, i32, ptr, ptr, %struct.GCRef, %struct.MRef, i32, i32, ptr, i32, i16, i16, i16, i16, i16, i16, i16, i8, i8, i8, i8 }
%struct.GCRef = type { i64 }
%struct.MRef = type { i64 }
%struct.IRType1 = type { i8 }
%struct.FoldState = type { %union.IRIns, [2 x %union.IRIns], [2 x %union.IRIns] }
%union.IRIns = type { %struct.GCRef }
%struct.HotPenalty = type { %struct.MRef, i16, i16 }
%struct.BPropEntry = type { i16, i16, i32 }
%struct.ScEvEntry = type { %struct.MRef, i16, i16, i16, i16, %struct.IRType1, i8 }
%union.TValue = type { i64 }
%struct.anon.0 = type { i32, %struct.IRType1, i8, i8, i8 }
%struct.anon = type { i16, i16, i16, i16 }

; Function Attrs: nounwind uwtable
define internal i32 @sink_phidep(ptr noundef %0, i32 noundef %1, ptr noundef %2) #0 {
  %4 = alloca i32, align 4
  %5 = alloca ptr, align 8
  %6 = alloca i32, align 4
  %7 = alloca ptr, align 8
  %8 = alloca ptr, align 8
  %9 = alloca i32, align 4
  store ptr %0, ptr %5, align 8, !tbaa !4
  store i32 %1, ptr %6, align 4, !tbaa !9
  store ptr %2, ptr %7, align 8, !tbaa !38
  call void @llvm.lifetime.start.p0(i64 8, ptr %8) #2
  %10 = load ptr, ptr %5, align 8, !tbaa !4
  %11 = getelementptr inbounds nuw %struct.jit_State, ptr %10, i32 0, i32 0
  %12 = getelementptr inbounds nuw %struct.GCtrace, ptr %11, i32 0, i32 7
  %13 = load ptr, ptr %12, align 8, !tbaa !40
  %14 = load i32, ptr %6, align 4, !tbaa !9
  %15 = zext i32 %14 to i64
  %16 = getelementptr inbounds nuw %union.IRIns, ptr %13, i64 %15
  store ptr %16, ptr %8, align 8, !tbaa !45
  %17 = load ptr, ptr %7, align 8, !tbaa !38
  %18 = load i32, ptr %17, align 4, !tbaa !9
  %19 = icmp ne i32 %18, 0
  br i1 %19, label %21, label %20

20:                                               ; preds = %3
  store i32 1, ptr %4, align 4
  store i32 1, ptr %9, align 4
  br label %66

21:                                               ; preds = %3
  %22 = load ptr, ptr %7, align 8, !tbaa !38
  %23 = load i32, ptr %22, align 4, !tbaa !9
  %24 = add nsw i32 %23, -1
  store i32 %24, ptr %22, align 4, !tbaa !9
  %25 = load ptr, ptr %8, align 8, !tbaa !45
  %26 = getelementptr inbounds nuw %struct.anon.0, ptr %25, i32 0, i32 1
  %27 = getelementptr inbounds nuw %struct.IRType1, ptr %26, i32 0, i32 0
  %28 = load i8, ptr %27, align 4, !tbaa !41
  %29 = zext i8 %28 to i32
  %30 = and i32 %29, 64
  %31 = icmp ne i32 %30, 0
  br i1 %31, label %32, label %33

32:                                               ; preds = %21
  store i32 1, ptr %4, align 4
  store i32 1, ptr %9, align 4
  br label %66

33:                                               ; preds = %21
  %34 = load ptr, ptr %8, align 8, !tbaa !45
  %35 = getelementptr inbounds nuw %struct.anon, ptr %34, i32 0, i32 0
  %36 = load i16, ptr %35, align 8, !tbaa !41
  %37 = zext i16 %36 to i32
  %38 = icmp sge i32 %37, 32769
  br i1 %38, label %39, label %49

39:                                               ; preds = %33
  %40 = load ptr, ptr %5, align 8, !tbaa !4
  %41 = load ptr, ptr %8, align 8, !tbaa !45
  %42 = getelementptr inbounds nuw %struct.anon, ptr %41, i32 0, i32 0
  %43 = load i16, ptr %42, align 8, !tbaa !41
  %44 = zext i16 %43 to i32
  %45 = load ptr, ptr %7, align 8, !tbaa !38
  %46 = call i32 @sink_phidep(ptr noundef %40, i32 noundef %44, ptr noundef %45)
  %47 = icmp ne i32 %46, 0
  br i1 %47, label %48, label %49

48:                                               ; preds = %39
  store i32 1, ptr %4, align 4
  store i32 1, ptr %9, align 4
  br label %66

49:                                               ; preds = %39, %33
  %50 = load ptr, ptr %8, align 8, !tbaa !45
  %51 = getelementptr inbounds nuw %struct.anon, ptr %50, i32 0, i32 1
  %52 = load i16, ptr %51, align 2, !tbaa !41
  %53 = zext i16 %52 to i32
  %54 = icmp sge i32 %53, 32769
  br i1 %54, label %55, label %65

55:                                               ; preds = %49
  %56 = load ptr, ptr %5, align 8, !tbaa !4
  %57 = load ptr, ptr %8, align 8, !tbaa !45
  %58 = getelementptr inbounds nuw %struct.anon, ptr %57, i32 0, i32 1
  %59 = load i16, ptr %58, align 2, !tbaa !41
  %60 = zext i16 %59 to i32
  %61 = load ptr, ptr %7, align 8, !tbaa !38
  %62 = call i32 @sink_phidep(ptr noundef %56, i32 noundef %60, ptr noundef %61)
  %63 = icmp ne i32 %62, 0
  br i1 %63, label %64, label %65

64:                                               ; preds = %55
  store i32 1, ptr %4, align 4
  store i32 1, ptr %9, align 4
  br label %66

65:                                               ; preds = %55, %49
  store i32 0, ptr %4, align 4
  store i32 1, ptr %9, align 4
  br label %66

66:                                               ; preds = %65, %64, %48, %32, %20
  call void @llvm.lifetime.end.p0(i64 8, ptr %8) #2
  %67 = load i32, ptr %4, align 4
  ret i32 %67
}