; Function Attrs: nofree nosync nounwind memory(read, argmem: readwrite, inaccessiblemem: none) uwtable
define internal fastcc range(i32 0, 2) i32 @sink_phidep(ptr noundef %0, i32 noundef range(i32 32769, 65536) %1, ptr noundef nonnull %2) unnamed_addr #2 {
  %4 = getelementptr inbounds nuw i8, ptr %0, i64 32
  %5 = load ptr, ptr %4, align 8, !tbaa !36
  %6 = zext nneg i32 %1 to i64
  %7 = getelementptr inbounds nuw %union.IRIns, ptr %5, i64 %6
  %8 = load i32, ptr %2, align 4, !tbaa !35
  %.not = icmp eq i32 %8, 0
  br i1 %.not, label %28, label %9

9:                                                ; preds = %3
  %10 = add nsw i32 %8, -1
  store i32 %10, ptr %2, align 4, !tbaa !35
  %11 = getelementptr inbounds nuw i8, ptr %7, i64 4
  %12 = load i8, ptr %11, align 4, !tbaa !37
  %13 = and i8 %12, 64
  %.not16 = icmp eq i8 %13, 0
  br i1 %.not16, label %14, label %28

14:                                               ; preds = %9
  %15 = load i16, ptr %7, align 8, !tbaa !37
  %16 = icmp ugt i16 %15, -32768
  br i1 %16, label %17, label %20

17:                                               ; preds = %14
  %18 = zext i16 %15 to i32
  %19 = tail call fastcc i32 @sink_phidep(ptr noundef nonnull %0, i32 noundef %18, ptr noundef %2)
  %.not17 = icmp eq i32 %19, 0
  br i1 %.not17, label %20, label %28

20:                                               ; preds = %17, %14
  %21 = getelementptr inbounds nuw i8, ptr %7, i64 2
  %22 = load i16, ptr %21, align 2, !tbaa !37
  %23 = icmp ugt i16 %22, -32768
  br i1 %23, label %24, label %27

24:                                               ; preds = %20
  %25 = zext i16 %22 to i32
  %26 = tail call fastcc i32 @sink_phidep(ptr noundef nonnull %0, i32 noundef %25, ptr noundef %2)
  %.not18 = icmp eq i32 %26, 0
  br i1 %.not18, label %27, label %28

27:                                               ; preds = %24, %20
  br label %28

28:                                               ; preds = %24, %17, %9, %3, %27
  %.0 = phi i32 [ 0, %27 ], [ 1, %3 ], [ 1, %9 ], [ 1, %17 ], [ 1, %24 ]
  ret i32 %.0
}